target datalayout = "e-m:e-p270:32:32-p271:32:32-p272:64:64-i64:64-i128:128-f80:128-n8:16:32:64-S128"
target triple = "x86_64-pc-linux-gnu"

%struct.cs_sparse = type { i32, i32, i32, ptr, ptr, ptr, i32 }

; Function Attrs: nounwind uwtable
define i32 @cs_sprealloc(ptr noundef %0, i32 noundef %1) #0 {
  %3 = alloca i32, align 4
  %4 = alloca ptr, align 8
  %5 = alloca i32, align 4
  %6 = alloca i32, align 4
  %7 = alloca i32, align 4
  %8 = alloca i32, align 4
  %9 = alloca i32, align 4
  %10 = alloca i32, align 4
  store ptr %0, ptr %4, align 8, !tbaa !7
  store i32 %1, ptr %5, align 4, !tbaa !3
  call void @llvm.lifetime.start.p0(i64 4, ptr %6) #3
  call void @llvm.lifetime.start.p0(i64 4, ptr %7) #3
  call void @llvm.lifetime.start.p0(i64 4, ptr %8) #3
  store i32 1, ptr %8, align 4, !tbaa !3
  call void @llvm.lifetime.start.p0(i64 4, ptr %9) #3
  store i32 1, ptr %9, align 4, !tbaa !3
  %11 = load ptr, ptr %4, align 8, !tbaa !7
  %12 = icmp ne ptr %11, null
  br i1 %12, label %14, label %13

13:                                               ; preds = %2
  store i32 0, ptr %3, align 4
  store i32 1, ptr %10, align 4
  br label %97

14:                                               ; preds = %2
  %15 = load i32, ptr %5, align 4, !tbaa !3
  %16 = icmp sle i32 %15, 0
  br i1 %16, label %17, label %41

17:                                               ; preds = %14
  %18 = load ptr, ptr %4, align 8, !tbaa !7
  %19 = icmp ne ptr %18, null
  br i1 %19, label %20, label %35

20:                                               ; preds = %17
  %21 = load ptr, ptr %4, align 8, !tbaa !7
  %22 = getelementptr inbounds nuw %struct.cs_sparse, ptr %21, i32 0, i32 6
  %23 = load i32, ptr %22, align 8, !tbaa !16
  %24 = icmp eq i32 %23, -1
  br i1 %24, label %25, label %35

25:                                               ; preds = %20
  %26 = load ptr, ptr %4, align 8, !tbaa !7
  %27 = getelementptr inbounds nuw %struct.cs_sparse, ptr %26, i32 0, i32 3
  %28 = load ptr, ptr %27, align 8, !tbaa !17
  %29 = load ptr, ptr %4, align 8, !tbaa !7
  %30 = getelementptr inbounds nuw %struct.cs_sparse, ptr %29, i32 0, i32 2
  %31 = load i32, ptr %30, align 8, !tbaa !14
  %32 = sext i32 %31 to i64
  %33 = getelementptr inbounds i32, ptr %28, i64 %32
  %34 = load i32, ptr %33, align 4, !tbaa !3
  br label %39

35:                                               ; preds = %20, %17
  %36 = load ptr, ptr %4, align 8, !tbaa !7
  %37 = getelementptr inbounds nuw %struct.cs_sparse, ptr %36, i32 0, i32 6
  %38 = load i32, ptr %37, align 8, !tbaa !16
  br label %39

39:                                               ; preds = %35, %25
  %40 = phi i32 [ %34, %25 ], [ %38, %35 ]
  store i32 %40, ptr %5, align 4, !tbaa !3
  br label %41

41:                                               ; preds = %39, %14
  %42 = load ptr, ptr %4, align 8, !tbaa !7
  %43 = getelementptr inbounds nuw %struct.cs_sparse, ptr %42, i32 0, i32 4
  %44 = load ptr, ptr %43, align 8, !tbaa !18
  %45 = load i32, ptr %5, align 4, !tbaa !3
  %46 = call ptr @cs_realloc(ptr noundef %44, i32 noundef %45, i64 noundef 4, ptr noundef %7)
  %47 = load ptr, ptr %4, align 8, !tbaa !7
  %48 = getelementptr inbounds nuw %struct.cs_sparse, ptr %47, i32 0, i32 4
  store ptr %46, ptr %48, align 8, !tbaa !18
  %49 = load ptr, ptr %4, align 8, !tbaa !7
  %50 = icmp ne ptr %49, null
  br i1 %50, label %51, label %64

51:                                               ; preds = %41
  %52 = load ptr, ptr %4, align 8, !tbaa !7
  %53 = getelementptr inbounds nuw %struct.cs_sparse, ptr %52, i32 0, i32 6
  %54 = load i32, ptr %53, align 8, !tbaa !16
  %55 = icmp sge i32 %54, 0
  br i1 %55, label %56, label %64

56:                                               ; preds = %51
  %57 = load ptr, ptr %4, align 8, !tbaa !7
  %58 = getelementptr inbounds nuw %struct.cs_sparse, ptr %57, i32 0, i32 3
  %59 = load ptr, ptr %58, align 8, !tbaa !17
  %60 = load i32, ptr %5, align 4, !tbaa !3
  %61 = call ptr @cs_realloc(ptr noundef %59, i32 noundef %60, i64 noundef 4, ptr noundef %8)
  %62 = load ptr, ptr %4, align 8, !tbaa !7
  %63 = getelementptr inbounds nuw %struct.cs_sparse, ptr %62, i32 0, i32 3
  store ptr %61, ptr %63, align 8, !tbaa !17
  br label %64

64:                                               ; preds = %56, %51, %41
  %65 = load ptr, ptr %4, align 8, !tbaa !7
  %66 = getelementptr inbounds nuw %struct.cs_sparse, ptr %65, i32 0, i32 5
  %67 = load ptr, ptr %66, align 8, !tbaa !19
  %68 = icmp ne ptr %67, null
  br i1 %68, label %69, label %77

69:                                               ; preds = %64
  %70 = load ptr, ptr %4, align 8, !tbaa !7
  %71 = getelementptr inbounds nuw %struct.cs_sparse, ptr %70, i32 0, i32 5
  %72 = load ptr, ptr %71, align 8, !tbaa !19
  %73 = load i32, ptr %5, align 4, !tbaa !3
  %74 = call ptr @cs_realloc(ptr noundef %72, i32 noundef %73, i64 noundef 8, ptr noundef %9)
  %75 = load ptr, ptr %4, align 8, !tbaa !7
  %76 = getelementptr inbounds nuw %struct.cs_sparse, ptr %75, i32 0, i32 5
  store ptr %74, ptr %76, align 8, !tbaa !19
  br label %77

77:                                               ; preds = %69, %64
  %78 = load i32, ptr %7, align 4, !tbaa !3
  %79 = icmp ne i32 %78, 0
  br i1 %79, label %80, label %86

80:                                               ; preds = %77
  %81 = load i32, ptr %8, align 4, !tbaa !3
  %82 = icmp ne i32 %81, 0
  br i1 %82, label %83, label %86

83:                                               ; preds = %80
  %84 = load i32, ptr %9, align 4, !tbaa !3
  %85 = icmp ne i32 %84, 0
  br label %86

86:                                               ; preds = %83, %80, %77
  %87 = phi i1 [ false, %80 ], [ false, %77 ], [ %85, %83 ]
  %88 = zext i1 %87 to i32
  store i32 %88, ptr %6, align 4, !tbaa !3
  %89 = load i32, ptr %6, align 4, !tbaa !3
  %90 = icmp ne i32 %89, 0
  br i1 %90, label %91, label %95

91:                                               ; preds = %86
  %92 = load i32, ptr %5, align 4, !tbaa !3
  %93 = load ptr, ptr %4, align 8, !tbaa !7
  %94 = getelementptr inbounds nuw %struct.cs_sparse, ptr %93, i32 0, i32 0
  store i32 %92, ptr %94, align 8, !tbaa !15
  br label %95

95:                                               ; preds = %91, %86
  %96 = load i32, ptr %6, align 4, !tbaa !3
  store i32 %96, ptr %3, align 4
  store i32 1, ptr %10, align 4
  br label %97

97:                                               ; preds = %95, %13
  call void @llvm.lifetime.end.p0(i64 4, ptr %9) #3
  call void @llvm.lifetime.end.p0(i64 4, ptr %8) #3
  call void @llvm.lifetime.end.p0(i64 4, ptr %7) #3
  call void @llvm.lifetime.end.p0(i64 4, ptr %6) #3
  %98 = load i32, ptr %3, align 4
  ret i32 %98
}