; Function Attrs: nounwind uwtable
define range(i32 0, 2) i32 @cs_sprealloc(ptr noundef captures(address_is_null) %0, i32 noundef %1) local_unnamed_addr #0 {
  %3 = alloca i32, align 4
  %4 = alloca i32, align 4
  %5 = alloca i32, align 4
  call void @llvm.lifetime.start.p0(i64 4, ptr nonnull %3) #4
  call void @llvm.lifetime.start.p0(i64 4, ptr nonnull %4) #4
  store i32 1, ptr %4, align 4, !tbaa !17
  call void @llvm.lifetime.start.p0(i64 4, ptr nonnull %5) #4
  store i32 1, ptr %5, align 4, !tbaa !17
  %.not = icmp eq ptr %0, null
  br i1 %.not, label %.thread, label %6

6:                                                ; preds = %2
  %7 = icmp slt i32 %1, 1
  br i1 %7, label %8, label %19

8:                                                ; preds = %6
  %9 = getelementptr inbounds nuw i8, ptr %0, i64 40
  %10 = load i32, ptr %9, align 8, !tbaa !13
  %11 = icmp eq i32 %10, -1
  br i1 %11, label %12, label %19

12:                                               ; preds = %8
  %13 = getelementptr inbounds nuw i8, ptr %0, i64 16
  %14 = load ptr, ptr %13, align 8, !tbaa !14
  %15 = getelementptr inbounds nuw i8, ptr %0, i64 8
  %16 = load i32, ptr %15, align 8, !tbaa !11
  %17 = sext i32 %16 to i64
  %18 = getelementptr inbounds i32, ptr %14, i64 %17
  %.pre = load i32, ptr %18, align 4, !tbaa !17
  br label %19

19:                                               ; preds = %12, %8, %6
  %.024 = phi i32 [ %1, %6 ], [ %.pre, %12 ], [ %10, %8 ]
  %20 = getelementptr inbounds nuw i8, ptr %0, i64 24
  %21 = load ptr, ptr %20, align 8, !tbaa !15
  %22 = call ptr @cs_realloc(ptr noundef %21, i32 noundef %.024, i64 noundef 4, ptr noundef nonnull %3) #4
  store ptr %22, ptr %20, align 8, !tbaa !15
  %23 = getelementptr inbounds nuw i8, ptr %0, i64 40
  %24 = load i32, ptr %23, align 8, !tbaa !13
  %25 = icmp sgt i32 %24, -1
  br i1 %25, label %26, label %30

26:                                               ; preds = %19
  %27 = getelementptr inbounds nuw i8, ptr %0, i64 16
  %28 = load ptr, ptr %27, align 8, !tbaa !14
  %29 = call ptr @cs_realloc(ptr noundef %28, i32 noundef %.024, i64 noundef 4, ptr noundef nonnull %4) #4
  store ptr %29, ptr %27, align 8, !tbaa !14
  br label %30

30:                                               ; preds = %26, %19
  %31 = getelementptr inbounds nuw i8, ptr %0, i64 32
  %32 = load ptr, ptr %31, align 8, !tbaa !16
  %.not28 = icmp eq ptr %32, null
  br i1 %.not28, label %36, label %33

33:                                               ; preds = %30
  %34 = call ptr @cs_realloc(ptr noundef nonnull %32, i32 noundef %.024, i64 noundef 8, ptr noundef nonnull %5) #4
  store ptr %34, ptr %31, align 8, !tbaa !16
  %.pre34 = load i32, ptr %5, align 4
  %35 = icmp eq i32 %.pre34, 0
  br label %36

36:                                               ; preds = %33, %30
  %.not29 = phi i1 [ %35, %33 ], [ false, %30 ]
  %37 = load i32, ptr %3, align 4, !tbaa !17
  %38 = icmp eq i32 %37, 0
  %39 = load i32, ptr %4, align 4
  %40 = icmp eq i32 %39, 0
  %or.cond.not33 = select i1 %38, i1 true, i1 %40
  %or.cond30 = select i1 %or.cond.not33, i1 true, i1 %.not29
  br i1 %or.cond30, label %.thread, label %41

41:                                               ; preds = %36
  store i32 %.024, ptr %0, align 8, !tbaa !12
  br label %.thread

.thread:                                          ; preds = %36, %41, %2
  %.0 = phi i32 [ 0, %2 ], [ 1, %41 ], [ 0, %36 ]
  call void @llvm.lifetime.end.p0(i64 4, ptr nonnull %5) #4
  call void @llvm.lifetime.end.p0(i64 4, ptr nonnull %4) #4
  call void @llvm.lifetime.end.p0(i64 4, ptr nonnull %3) #4
  ret i32 %.0
}